(lp0
F-0.9528747774076409
aF-0.6709172021549408
aF0.7425248042744916
aF0.5688441651213824
aF-0.6566695530913497
aF1.045096794324324
aF1.794867557610075
aF-0.40022170513539107
aF-0.8109728984336343
aF-0.07941903855614066
aF-0.33679434218253684
aF2.824918033316171
aF-1.258105157403
aF-1.1634756213290773
aF1.8746292800402133
aF1.1613364525858545
aF0.4215042551954324
aF-1.8381275744372547
aF-0.6589970308341551
aF1.4246900987894742
aF1.9812899919189262
aF0.7342427259785573
aF0.18806003727463327
aF-1.733416738846358
aF-0.8400937547779738
aF-0.7702190537243405
aF-0.40502328820222977
aF-0.40338506187791406
aF0.2621078938969345
aF-1.3341433316993712
aF0.2848440707464236
aF-0.4797852019390678
aF0.7179014910614571
aF-0.15080180964612422
aF2.2460844866705267
aF1.4500511959152782
aF0.5722439034040131
aF-1.151150156518502
aF2.953402845963094
aF0.3527364193707365
aF-1.9516763130781651
aF0.7523057822631921
aF-0.0896699874758836
aF-1.8200360333490695
aF1.5860850309269963
aF-0.7939878367707323
aF2.0373811035201603
aF-2.0711801882609167
aF-0.39391233870514575
aF2.4439836795959593
aF0.44369049794761245
aF-0.5657731469240145
aF-0.2677201517744915
aF-1.125094473076266
aF-0.8465043698695235
aF-0.807669704295925
aF-0.005958534760774078
aF-6.103451742423713
aF-1.8648850358625468
aF-0.6161834137516055
aF-1.6638861567003795
aF0.45008526380639774
aF-0.36500303425349956
aF1.6939214984285231
aF0.4208584749605904
aF-0.27921026574675406
aF-1.63888855306535
aF-1.247839625372672
aF1.4835881340335215
aF2.451259058173288
aF0.6700683920727164
aF1.3329935968386866
aF1.4380386003439363
aF-0.7040613427053545
aF0.543026638552584
aF-1.7467437103681487
aF1.1232587778772978
aF0.6969212324476465
aF-0.3951866546055754
aF-1.0544791223766663
aF0.9397987675345862
aF-0.2795256724850355
aF-0.4273709095783037
aF-0.9735296796828038
aF-0.043072404143970046
aF-1.5466976505480223
aF-0.5862657344963137
aF-0.7176861032864233
aF0.6788942098342468
aF0.23943946476284297
aF-1.0382485661392673
aF-0.37864506688760075
aF-0.8277849353176379
aF0.5334625739449937
aF1.1799123081026939
aF-1.9512290275749682
aF-0.5335305952432114
aF-2.4823909865273954
aF-0.8963556044101689
aF1.2107850590839768
aF-0.28827327536230724
aF0.30410711731126006
aF0.41307818579080724
aF-2.5538202102914997
aF0.022736303852822184
aF-0.9827342825668572
aF0.9401986248442903
aF-0.030401076444586526
aF-1.138467393550886
aF-0.6244511070298779
aF0.21204803417822438
aF-1.0550118484829951
aF0.054818356634284256
aF-0.0072645868694419455
aF1.424418135101723
aF-0.543571082188328
aF-0.2851411651910999
aF0.47895147661412146
aF0.20013289216840485
aF0.288529309064636
aF1.9165727735448177
aF-0.4505596503807794
aF-1.3848939023682842
aF0.8311970427792718
aF-0.5757215544375502
aF1.0134766006524163
aF-0.9936933620813597
aF-0.806924401272844
aF-0.6998276496454606
aF-0.3452127337435124
aF-0.06601527535580748
aF-0.7168212455818707
aF-1.0038388192454384
aF-0.7021148347641069
aF-0.9251661324645001
aF0.25297476207917646
aF0.8583815045563481
aF-0.4674014180114472
aF-1.0490349613860437
aF0.13939385062446444
aF0.5381218484436076
aF-0.4915109796331112
aF0.316010676707568
aF-0.24501604022531293
aF-0.10692031803481583
aF0.3163413247807265
aF1.187620821603636
aF0.10780347929544597
aF2.2527938128914036
aF-0.2696259570509614
aF-0.5385378151930242
aF-0.8161114188877947
aF-0.015033151786884996
aF-1.7336577038265442
aF-1.5745471561492306
aF0.9914660053002589
aF0.9839180465011457
aF2.714655459614433
aF-0.8683986348739388
aF-1.160043926017885
aF-1.1474683111995876
aF-0.17398431031616046
aF0.05624911085067656
aF0.775708485649264
aF0.9024325170365546
aF1.404012461066154
aF1.6501561779744434
aF0.015428308524103422
aF2.469612679875354
aF-0.6430290533839466
aF1.005772674023857
aF0.9017056787781584
aF-0.26777187455391355
aF2.6363099960329994
aF-0.4759935627219756
aF-0.7530925791451101
aF0.6273425742299109
aF0.14058041092904658
aF-1.4153626204068375
aF0.922831112914921
aF-0.9685121552552206
aF1.0491104751099944
aF1.1757309230937945
aF0.5583222361071551
aF1.322932508083491
aF0.3908099478648598
aF-0.496278639897416
aF-0.22094695051721236
aF-0.4805232560800022
aF-0.23946321819734617
aF-0.9324719617551918
aF-0.13962429800480186
aF0.5542489731631286
aF0.49836880414992396
aF0.3988282730165974
aF-0.800928455428306
aF-1.0918326830353802
aF-0.24848343254875754
aF1.0198582970339969
aF0.11995845193750032
aF-0.5461915477525847
aF0.33745472550921396
aF-0.8613623670041848
aF1.250536382963958
aF0.4775507167144765
aF0.05461965213450851
aF-0.09395892350535325
aF0.5691152695305866
aF-1.337899061481186
aF-0.2762797322214675
aF-1.7022159645820778
aF-0.27654105036116816
aF0.9264044067219241
aF-0.09574676760230792
aF-0.7634293764464671
aF-1.1913674172816113
aF0.410003558478205
aF-0.07469133779354802
aF-0.16194603120381473
aF-0.1747599140711149
aF1.1602471319433048
aF0.7948717098822143
aF0.23061722986408223
aF0.18147499653855348
aF0.8711661981894993
aF-1.8906521113729937
aF1.4794705792422969
aF-0.5385169315613171
aF-1.5934296587972574
aF0.48004727211088466
aF-0.27098390411618273
aF-0.2194498951818325
aF0.01941434728542495
aF-0.23846345333696364
aF0.497291129459821
aF-0.24480284696526203
aF-0.8043440452925498
aF1.1711685982689115
aF-0.6439927491476904
aF1.2346869881501497
aF0.3840483756828957
aF-0.10109167037033076
aF1.294774633420812
aF-1.0878698083637526
aF1.0553326793193984
aF0.3868899665495549
aF-1.5287197008435052
aF-0.7028999166989076
aF-0.5769380745154336
aF-0.889037965210288
aF-0.21006832607023274
aF-0.001874383221909254
aF2.0472722891262927
aF0.9168255708087428
aF0.13834670039764688
aF0.3731238313854298
aF0.17591607346478644
aF0.8896390418882046
aF-1.7216474643977382
aF-1.1238295621155516
aF-0.8810529883394788
aF1.7279252683645154
aF-1.488554042909035
aF0.12574475028536874
aF0.7869181754123538
aF0.8381552958003489
aF-0.027828810796727766
aF1.2478411566844778
aF1.6531108084807034
aF0.47144595404116724
aF-0.9769846675631257
aF0.9838536820455466
aF-1.6777644787390964
aF1.7416539381032716
aF0.13036975638466025
aF-1.1391742869874228
aF0.6706241009689607
aF-0.19276257736844107
aF0.9452493604879503
aF-0.8445098076076477
aF-0.08338930822341944
aF-2.5002082982597886
aF-0.6660463265751402
aF-1.0229846762955546
aF-0.849754337212213
aF0.4657341593225583
aF2.8817330684220215
aF0.8003119228027609
aF1.7353038543138704
aF-0.30649360284039073
aF0.44851272986452007
aF-0.6287802296097503
aF1.294927875344599
aF-1.098624355998048
aF-0.2353384360647297
aF-0.5067946567408314
aF0.8988786056208706
aF-0.10327133603651854
aF1.3735288222170303
aF-0.7582645348971644
aF-0.21058046488889248
aF0.4441885466110508
aF2.064520389027504
aF-0.7719322739331486
aF0.6855935593264392
aF0.09696004040453797
aF0.11212844758696103
aF0.4650286249041175
aF1.763074691108652
aF-0.8582339782629486
aF-0.10212212036435801
aF1.9167804590413384
aF-0.4074004091179701
aF2.0346544855961732
aF0.25029269072574567
aF1.6052426349154985
aF1.12694105622511
aF0.09517792983385075
aF1.0585764927223658
aF1.5123743357880957
aF-2.006491930432297
aF0.23591752447788678
aF0.4054040245042391
aF0.41678466141885356
aF-1.4812263801609487
aF1.3158333311328265
aF-0.5073260913663219
aF-1.1451728359854272
aF-1.0416677847566607
aF-0.9110419126186773
aF1.6222103527237788
aF-1.2105547485714319
aF-1.5002264632114102
aF-1.0545603028673558
aF-2.0277337572382033
aF-1.227027235721185
aF-0.4574138312401432
aF-0.2779229504800026
aF0.9927703695738916
aF-0.4569034265138439
aF0.19169241897431558
aF-0.9455754161730983
aF-1.30993539934631
aF0.6192887144796088
aF-0.7255936402824071
aF-0.5669199335233104
aF0.5097174453348694
aF0.4414856029480772
aF-0.6584627067101971
aF0.17911059966389756
aF-1.3450828377761936
aF0.14397614685350257
aF1.7109900703495033
aF-1.4362766586146518
aF0.26556610482721454
aF0.01858097496274309
aF-1.33899972353653
aF0.290000572041485
aF-1.6173901637549906
aF0.5565398636762088
aF2.834380525440581
aF1.7616404533110523
aF1.5620679179409185
aF-0.3855104097314199
a.